target datalayout = "e-m:e-p270:32:32-p271:32:32-p272:64:64-i64:64-i128:128-f80:128-n8:16:32:64-S128"
target triple = "x86_64-pc-linux-gnu"

%struct.cbs_st = type { ptr, i64 }

@.str = private unnamed_addr constant [118 x i8] c"generated/home/dtcxzyw/WorkSpace/Projects/compilers/llvm-opt-benchmark/bench/libquic/libquic/boringssl/ssl/ssl_asn1.c\00", align 1

; Function Attrs: nounwind uwtable
define hidden ptr @d2i_SSL_SESSION(ptr noundef %0, ptr noundef %1, i64 noundef %2) #0 {
  %4 = alloca ptr, align 8
  %5 = alloca ptr, align 8
  %6 = alloca ptr, align 8
  %7 = alloca i64, align 8
  %8 = alloca %struct.cbs_st, align 8
  %9 = alloca ptr, align 8
  %10 = alloca i32, align 4
  store ptr %0, ptr %5, align 8, !tbaa !58
  store ptr %1, ptr %6, align 8, !tbaa !11
  store i64 %2, ptr %7, align 8, !tbaa !48
  %11 = load i64, ptr %7, align 8, !tbaa !48
  %12 = icmp slt i64 %11, 0
  br i1 %12, label %13, label %14

13:                                               ; preds = %3
  call void @ERR_put_error(i32 noundef 16, i32 noundef 0, i32 noundef 68, ptr noundef @.str, i32 noundef 700)
  store ptr null, ptr %4, align 8
  br label %35

14:                                               ; preds = %3
  call void @llvm.lifetime.start.p0(i64 16, ptr %8) #6
  %15 = load ptr, ptr %6, align 8, !tbaa !11
  %16 = load ptr, ptr %15, align 8, !tbaa !51
  %17 = load i64, ptr %7, align 8, !tbaa !48
  call void @CBS_init(ptr noundef %8, ptr noundef %16, i64 noundef %17)
  call void @llvm.lifetime.start.p0(i64 8, ptr %9) #6
  %18 = call ptr @SSL_SESSION_parse(ptr noundef %8)
  store ptr %18, ptr %9, align 8, !tbaa !6
  %19 = load ptr, ptr %9, align 8, !tbaa !6
  %20 = icmp eq ptr %19, null
  br i1 %20, label %21, label %22

21:                                               ; preds = %14
  store ptr null, ptr %4, align 8
  store i32 1, ptr %10, align 4
  br label %34

22:                                               ; preds = %14
  %23 = load ptr, ptr %5, align 8, !tbaa !58
  %24 = icmp ne ptr %23, null
  br i1 %24, label %25, label %30

25:                                               ; preds = %22
  %26 = load ptr, ptr %5, align 8, !tbaa !58
  %27 = load ptr, ptr %26, align 8, !tbaa !6
  call void @SSL_SESSION_free(ptr noundef %27)
  %28 = load ptr, ptr %9, align 8, !tbaa !6
  %29 = load ptr, ptr %5, align 8, !tbaa !58
  store ptr %28, ptr %29, align 8, !tbaa !6
  br label %30

30:                                               ; preds = %25, %22
  %31 = call ptr @CBS_data(ptr noundef %8)
  %32 = load ptr, ptr %6, align 8, !tbaa !11
  store ptr %31, ptr %32, align 8, !tbaa !51
  %33 = load ptr, ptr %9, align 8, !tbaa !6
  store ptr %33, ptr %4, align 8
  store i32 1, ptr %10, align 4
  br label %34

34:                                               ; preds = %30, %21
  call void @llvm.lifetime.end.p0(i64 8, ptr %9) #6
  call void @llvm.lifetime.end.p0(i64 16, ptr %8) #6
  br label %35

35:                                               ; preds = %34, %13
  %36 = load ptr, ptr %4, align 8
  ret ptr %36
}