; Function Attrs: nounwind uwtable
define hidden ptr @d2i_SSL_SESSION(ptr noundef captures(address_is_null) %0, ptr noundef captures(none) %1, i64 noundef %2) local_unnamed_addr #0 {
  %4 = alloca %struct.cbs_st, align 8
  %5 = icmp slt i64 %2, 0
  br i1 %5, label %6, label %7

6:                                                ; preds = %3
  tail call void @ERR_put_error(i32 noundef 16, i32 noundef 0, i32 noundef 68, ptr noundef nonnull @.str, i32 noundef 700) #7
  br label %17

7:                                                ; preds = %3
  call void @llvm.lifetime.start.p0(i64 16, ptr nonnull %4) #7
  %8 = load ptr, ptr %1, align 8, !tbaa !45
  call void @CBS_init(ptr noundef nonnull %4, ptr noundef %8, i64 noundef %2) #7
  %9 = call fastcc ptr @SSL_SESSION_parse(ptr noundef %4)
  %10 = icmp eq ptr %9, null
  br i1 %10, label %16, label %11

11:                                               ; preds = %7
  %.not = icmp eq ptr %0, null
  br i1 %.not, label %14, label %12

12:                                               ; preds = %11
  %13 = load ptr, ptr %0, align 8, !tbaa !49
  call void @SSL_SESSION_free(ptr noundef %13) #7
  store ptr %9, ptr %0, align 8, !tbaa !49
  br label %14

14:                                               ; preds = %12, %11
  %15 = call ptr @CBS_data(ptr noundef nonnull %4) #7
  store ptr %15, ptr %1, align 8, !tbaa !45
  br label %16

16:                                               ; preds = %7, %14
  call void @llvm.lifetime.end.p0(i64 16, ptr nonnull %4) #7
  br label %17

17:                                               ; preds = %16, %6
  %.0 = phi ptr [ null, %6 ], [ %9, %16 ]
  ret ptr %.0
}